; Function Attrs: mustprogress nofree norecurse nosync nounwind willreturn memory(argmem: read) uwtable
define noundef i64 @_ZNK4LIEF3ELF4Note4sizeEv(ptr noundef nonnull readonly align 8 captures(none) dereferenceable(104) %0) local_unnamed_addr #7 align 2 {
  %2 = getelementptr inbounds nuw i8, ptr %0, i64 16
  %3 = load i64, ptr %2, align 8, !tbaa !84
  %4 = add i64 %3, 13
  %5 = and i64 %4, 3
  %.not.i = icmp eq i64 %5, 0
  %6 = sub nuw nsw i64 4, %5
  %7 = select i1 %.not.i, i64 0, i64 %6
  %.1.i = add i64 %7, %4
  %8 = getelementptr inbounds nuw i8, ptr %0, i64 48
  %9 = load ptr, ptr %8, align 8, !tbaa !3
  %10 = getelementptr inbounds nuw i8, ptr %0, i64 56
  %11 = load ptr, ptr %10, align 8, !tbaa !12
  %12 = ptrtoint ptr %11 to i64
  %13 = ptrtoint ptr %9 to i64
  %14 = sub i64 %12, %13
  %15 = add i64 %.1.i, %14
  %16 = and i64 %15, 3
  %.not.i6 = icmp eq i64 %16, 0
  %17 = sub nuw nsw i64 4, %16
  %18 = select i1 %.not.i6, i64 0, i64 %17
  %.1.i7 = add i64 %18, %15
  ret i64 %.1.i7
}